S'bash soundscrape -f -n 100 Lulleaux'
p1
.S'bash soundscrape -f -n 100 Thomas Jack'
p1
.S'bash soundscrape -f -n 100 Macho Peachu'
p1
.S'bash soundscrape -f -n 100 Tom Budin'
p1
.S'bash soundscrape -f -n 100 SLANDER'
p1
.S'bash soundscrape -f -n 100 Trippy Turtle'
p1
.S'bash soundscrape -f -n 100 Tom Swoon'
p1
.S'bash soundscrape -f -n 100 Monstercat'
p1
.S'bash soundscrape -f -n 100 Porter Robinson'
p1
.S'bash soundscrape -f -n 100 Tobasko'
p1
.S'bash soundscrape -f -n 100 Only Mashes Bonfire'
p1
.S'bash soundscrape -f -n 100 Kygo'
p1
.S'bash soundscrape -f -n 100 EDM'
p1
.S'bash soundscrape -f -n 100 Mat Zo'
p1
.S'bash soundscrape -f -n 100 ARMNHMR'
p1
.S'bash soundscrape -f -n 100 Kaiori Breathe'
p1
.S'bash soundscrape -f -n 100 NilsOfficial '
p1
.S'bash soundscrape -f -n 100 GLDN Collective'
p1
.S'bash soundscrape -f -n 100 Rogue '
p1
.S'bash soundscrape -f -n 100 Rameses B'
p1
.S'bash soundscrape -f -n 100 DILLONFRANCIS'
p1
.S'bash soundscrape -f -n 100 Midnight Memories'
p1
.S'bash soundscrape -f -n 100 Danrell'
p1
.S'bash soundscrape -f -n 100 Kaskade'
p1
.S'bash soundscrape -f -n 100 EvenS'
p1
.S'bash soundscrape -f -n 100 Jai Wolf'
p1
.S'bash soundscrape -f -n 100 Anjunadeep'
p1
.S'bash soundscrape -f -n 100 Galimatias'
p1
.S'bash soundscrape -f -n 100 Lazerhawk'
p1
.S'bash soundscrape -f -n 100 ravishouse'
p1
.S'bash soundscrape -f -n 100 Coucheron'
p1
.S'bash soundscrape -f -n 100 Stumbleine'
p1
.S'bash soundscrape -f -n 100 Maduk'
p1
.S'bash soundscrape -f -n 100 Autograf'
p1
.S'bash soundscrape -f -n 100 Jerry Folk'
p1
.S'bash soundscrape -f -n 100 Carl Louis'
p1
.S'bash soundscrape -f -n 100 MitiS'
p1
.S'bash soundscrape -f -n 100 myonandshane54'
p1
.S'bash soundscrape -f -n 100 NIK COOPER'
p1
.S'bash soundscrape -f -n 100 Phaeleh'
p1
.S'bash soundscrape -f -n 100 marshmello'
p1
.S'bash soundscrape -f -n 100 DAVR'
p1
.S'bash soundscrape -f -n 100 Majestic Casual'
p1
.S'bash soundscrape -f -n 100 TwoThirds'
p1
.S'bash soundscrape -f -n 100 House'
p1
.S'bash soundscrape -f -n 100 Maria D'
p1
.S'bash soundscrape -f -n 100 Duke Dumont'
p1
.S'bash soundscrape -f -n 100 KOAN Sound'
p1
.S'bash soundscrape -f -n 100 AZEDIA'
p1
.S'bash soundscrape -f -n 100 Hellberg'
p1
.S'bash soundscrape -f -n 100 Vicetone'
p1
.S'bash soundscrape -f -n 100 WeAreFiasko'
p1
.S'bash soundscrape -f -n 100 Gryffin Official'
p1
.S'bash soundscrape -f -n 100 CHVRCHES'
p1
.S'bash soundscrape -f -n 100 Seven Lions'
p1
.S'bash soundscrape -f -n 100 GRCS'
p1
.S'bash soundscrape -f -n 100 Lemaitre'
p1
.S'bash soundscrape -f -n 100 Bearson'
p1
.S'bash soundscrape -f -n 100 Chet Porter'
p1
.S'bash soundscrape -f -n 100 MarioM'
p1
.S'bash soundscrape -f -n 100 ODESZA'
p1
.S'bash soundscrape -f -n 100 BAR9'
p1
.S'bash soundscrape -f -n 100 Armin van Buuren'
p1
.S'bash soundscrape -f -n 100 SJUR'
p1
.S'bash soundscrape -f -n 100 Major Lazer '
p1
.S'bash soundscrape -f -n 100 Hrishikesh Hirway'
p1
.S'bash soundscrape -f -n 100 Instant Party'
p1
.S'bash soundscrape -f -n 100 ArkasiaConcept'
p1
.S'bash soundscrape -f -n 100 Draper'
p1
.S'bash soundscrape -f -n 100 Artimes'
p1
.S'bash soundscrape -f -n 100 Axwell '
p1
.S'bash soundscrape -f -n 100 Stephen Walking'
p1
.S'bash soundscrape -f -n 100 BEKK Open Podcast'
p1
.S'bash soundscrape -f -n 100 HIKE'
p1
.S'bash soundscrape -f -n 100 Kill The Zo'
p1
.S'bash soundscrape -f -n 100 Asa'
p1
.S'bash soundscrape -f -n 100 Tiger Mountain'
p1
.S'bash soundscrape -f -n 100 Thissongissick'
p1
.S'bash soundscrape -f -n 100 Au5'
p1
.S'bash soundscrape -f -n 100 Jonas Aden'
p1
.S'bash soundscrape -f -n 100 The M Machine'
p1
.S'bash soundscrape -f -n 100 Elephante'
p1
.S'bash soundscrape -f -n 100 Dardan Dani Mujaj'
p1
.S'bash soundscrape -f -n 100 MOVING CASTLE'
p1
.S'bash soundscrape -f -n 100 Future Factory'
p1
.S'bash soundscrape -f -n 100 Dirty Disco Youth'
p1
.S'bash soundscrape -f -n 100 HarveyDecember'
p1
.S'bash soundscrape -f -n 100 San Holo'
p1
.S'bash soundscrape -f -n 100 James Carter'
p1
.S'bash soundscrape -f -n 100 Thero'
p1
.S'bash soundscrape -f -n 100 TideOfficial'
p1
.S'bash soundscrape -f -n 100 Going Quantum'
p1
.S'bash soundscrape -f -n 100 MrSuicideSheep'
p1
.S'bash soundscrape -f -n 100 Legz'
p1
.S'bash soundscrape -f -n 100 Blackmill'
p1
.S'bash soundscrape -f -n 100 Dj dj'
p1
.S'bash soundscrape -f -n 100 Half Dust'
p1
.S'bash soundscrape -f -n 100 ELIAS'
p1
.S'bash soundscrape -f -n 100 Madeon'
p1
.S'bash soundscrape -f -n 100 M3ITIS'
p1
.S'bash soundscrape -f -n 100 Adventure Club'
p1
.S'bash soundscrape -f -n 100 BUTCH CLANCY'
p1
.S'bash soundscrape -f -n 100 MissNine'
p1
.S'bash soundscrape -f -n 100 Sorrow'
p1
.S'bash soundscrape -f -n 100 filous'
p1
.S'bash soundscrape -f -n 100 B V H'
p1
.S'bash soundscrape -f -n 100 CALVO'
p1
.S'bash soundscrape -f -n 100 17tumba'
p1
.S'bash soundscrape -f -n 100 Eric Prydz'
p1
.S'bash soundscrape -f -n 100 erwtenpeller'
p1
.S'bash soundscrape -f -n 100 Foreign Family Collective'
p1
.S'bash soundscrape -f -n 100 Next Wave'
p1
.S'bash soundscrape -f -n 100 Flume'
p1
.S'bash soundscrape -f -n 100 Vitisve'
p1
.S'bash soundscrape -f -n 100 Owsey'
p1
.S'bash soundscrape -f -n 100 HOTEL GARUDA'
p1
.S'bash soundscrape -f -n 100 slowmostage'
p1
.S'bash soundscrape -f -n 100 AxMod'
p1
.S'bash soundscrape -f -n 100 Manila Killa'
p1
.S'bash soundscrape -f -n 100 Subkvlt'
p1
.S'bash soundscrape -f -n 100 Televisor '
p1
.S'bash soundscrape -f -n 100 LOVELESS Music'
p1
.S'bash soundscrape -f -n 100 Slow Magic'
p1
.S'bash soundscrape -f -n 100 SNBRN'
p1
.S'bash soundscrape -f -n 100 Camo '
p1
.S'bash soundscrape -f -n 100 Above '
p1
.S'bash soundscrape -f -n 100 telepathics'
p1
.S'bash soundscrape -f -n 100 Haukjem'
p1
.S'bash soundscrape -f -n 100 coyote kisses'
p1
.S'bash soundscrape -f -n 100 Fehrplay'
p1
.S'bash soundscrape -f -n 100 Marina Faib'
p1
.S'bash soundscrape -f -n 100 Module Module'
p1
.S'bash soundscrape -f -n 100 Feint'
p1
.S'bash soundscrape -f -n 100 BratkillaDubstep'
p1
.S'bash soundscrape -f -n 100 aulin'
p1
.S'bash soundscrape -f -n 100 Jack '
p1
.S'bash soundscrape -f -n 100 Mau Kilauea'
p1
.S'bash soundscrape -f -n 100 Samuel'
p1
.S'bash soundscrape -f -n 100 Chill Harris'
p1
.S'bash soundscrape -f -n 100 LONGO'
p1
.S'bash soundscrape -f -n 100 3LAU'
p1
.S'bash soundscrape -f -n 100 WRLD'
p1
.S'bash soundscrape -f -n 100 Kelvin Jones'
p1
.S'bash soundscrape -f -n 100 Hockenheim Official'
p1
.S'bash soundscrape -f -n 100 Lido'
p1
.S'bash soundscrape -f -n 100 Mr FijiWiji'
p1
.S'bash soundscrape -f -n 100 Hiatus'
p1
.S'bash soundscrape -f -n 100 FlicFlac'
p1
.S'bash soundscrape -f -n 100 Bakermat'
p1
.S'bash soundscrape -f -n 100 AObeats'
p1
.S'bash soundscrape -f -n 100 ILLENIUM '
p1
.S'bash soundscrape -f -n 100 Lost Frequencies'
p1
.S'bash soundscrape -f -n 100 AviciiOfficial'
p1
.S'bash soundscrape -f -n 100 Tomas Emil'
p1
.S'bash soundscrape -f -n 100 Viola Emiri'
p1
.S'bash soundscrape -f -n 100 RAC'
p1
.S'bash soundscrape -f -n 100 Karen Norbakk'
p1
.S'bash soundscrape -f -n 100 ephixa'
p1
.S'bash soundscrape -f -n 100 Disclosure'
p1
.S'bash soundscrape -f -n 100 Aeuria'
p1
.S'bash soundscrape -f -n 100 Cazzette'
p1
.S'bash soundscrape -f -n 100 Evan  Duffy'
p1
.S'bash soundscrape -f -n 100 Ed Era'
p1
.S'bash soundscrape -f -n 100 shingonakamura'
p1
.S'bash soundscrape -f -n 100 Atra Aeterna'
p1
.S'bash soundscrape -f -n 100 The Him'
p1
.S'bash soundscrape -f -n 100 Segal'
p1
.S'bash soundscrape -f -n 100 Chet Faker'
p1
.
